; Function Attrs: nofree norecurse nosync nounwind memory(readwrite, inaccessiblemem: none) uwtable
define internal void @ff_tx_fft2048_ns_double_c(ptr readnone captures(none) %0, ptr noundef initializes((0, 256)) %1, ptr noundef readonly captures(none) %2, i64 %3) #10 {
  tail call void @ff_tx_fft256_ns_double_c(ptr readnone poison, ptr noundef %1, ptr noundef readonly %2, i64 poison)
  %5 = getelementptr inbounds nuw i8, ptr %1, i64 4096
  %6 = getelementptr inbounds nuw i8, ptr %2, i64 4096
  tail call void @ff_tx_fft128_ns_double_c(ptr readnone poison, ptr noundef nonnull %5, ptr noundef nonnull readonly %6, i64 poison)
  %7 = getelementptr inbounds nuw i8, ptr %1, i64 6144
  %8 = getelementptr inbounds nuw i8, ptr %2, i64 6144
  tail call void @ff_tx_fft128_ns_double_c(ptr readnone poison, ptr noundef nonnull %7, ptr noundef nonnull readonly %8, i64 poison)
  tail call fastcc void @ff_tx_fft_sr_combine_double_c(ptr noundef %1, ptr noundef nonnull @ff_tx_tab_512_double, i32 noundef 64)
  %9 = getelementptr inbounds nuw i8, ptr %1, i64 8192
  %10 = getelementptr inbounds nuw i8, ptr %2, i64 8192
  tail call void @ff_tx_fft256_ns_double_c(ptr readnone poison, ptr noundef nonnull %9, ptr noundef nonnull readonly %10, i64 poison)
  %11 = getelementptr inbounds nuw i8, ptr %1, i64 12288
  %12 = getelementptr inbounds nuw i8, ptr %2, i64 12288
  tail call void @ff_tx_fft256_ns_double_c(ptr readnone poison, ptr noundef nonnull %11, ptr noundef nonnull readonly %12, i64 poison)
  tail call fastcc void @ff_tx_fft_sr_combine_double_c(ptr noundef %1, ptr noundef nonnull @ff_tx_tab_1024_double, i32 noundef 128)
  %13 = getelementptr inbounds nuw i8, ptr %1, i64 16384
  %14 = getelementptr inbounds nuw i8, ptr %2, i64 16384
  tail call void @ff_tx_fft256_ns_double_c(ptr readnone poison, ptr noundef nonnull %13, ptr noundef nonnull readonly %14, i64 poison)
  %15 = getelementptr inbounds nuw i8, ptr %1, i64 20480
  %16 = getelementptr inbounds nuw i8, ptr %2, i64 20480
  tail call void @ff_tx_fft128_ns_double_c(ptr readnone poison, ptr noundef nonnull %15, ptr noundef nonnull readonly %16, i64 poison)
  %17 = getelementptr inbounds nuw i8, ptr %1, i64 22528
  %18 = getelementptr inbounds nuw i8, ptr %2, i64 22528
  tail call void @ff_tx_fft128_ns_double_c(ptr readnone poison, ptr noundef nonnull %17, ptr noundef nonnull readonly %18, i64 poison)
  tail call fastcc void @ff_tx_fft_sr_combine_double_c(ptr noundef nonnull %13, ptr noundef nonnull @ff_tx_tab_512_double, i32 noundef 64)
  %19 = getelementptr inbounds nuw i8, ptr %1, i64 24576
  %20 = getelementptr inbounds nuw i8, ptr %2, i64 24576
  tail call void @ff_tx_fft256_ns_double_c(ptr readnone poison, ptr noundef nonnull %19, ptr noundef nonnull readonly %20, i64 poison)
  %21 = getelementptr inbounds nuw i8, ptr %1, i64 28672
  %22 = getelementptr inbounds nuw i8, ptr %2, i64 28672
  tail call void @ff_tx_fft128_ns_double_c(ptr readnone poison, ptr noundef nonnull %21, ptr noundef nonnull readonly %22, i64 poison)
  %23 = getelementptr inbounds nuw i8, ptr %1, i64 30720
  %24 = getelementptr inbounds nuw i8, ptr %2, i64 30720
  tail call void @ff_tx_fft128_ns_double_c(ptr readnone poison, ptr noundef nonnull %23, ptr noundef nonnull readonly %24, i64 poison)
  tail call fastcc void @ff_tx_fft_sr_combine_double_c(ptr noundef nonnull %19, ptr noundef nonnull @ff_tx_tab_512_double, i32 noundef 64)
  tail call fastcc void @ff_tx_fft_sr_combine_double_c(ptr noundef %1, ptr noundef nonnull @ff_tx_tab_2048_double, i32 noundef 256)
  ret void
}